; Function Attrs: mustprogress uwtable
define hidden void @_ZN4cvc58internal6theory5arith11TheoryArith16updateModelCacheERSt3setINS0_12NodeTemplateILb1EEESt4lessIS6_ESaIS6_EE(ptr noundef nonnull align 8 dereferenceable(1856) %this, ptr noundef nonnull align 8 dereferenceable(48) %termSet) local_unnamed_addr #3 align 2 {
entry:
  %d_arithModelCacheSet = getelementptr inbounds i8, ptr %this, i64 1824
  %0 = load i8, ptr %d_arithModelCacheSet, align 8
  %1 = and i8 %0, 1
  %tobool.not = icmp eq i8 %1, 0
  br i1 %tobool.not, label %if.then, label %if.end

if.then:                                          ; preds = %entry
  tail call void @_ZNK4cvc58internal6theory6Theory28collectAssertedTermsForModelERSt3setINS0_12NodeTemplateILb1EEESt4lessIS5_ESaIS5_EEb(ptr noundef nonnull align 8 dereferenceable(408) %this, ptr noundef nonnull align 8 dereferenceable(48) %termSet, i1 noundef zeroext true)
  %2 = load i8, ptr %d_arithModelCacheSet, align 8
  %3 = and i8 %2, 1
  %tobool.not.i = icmp eq i8 %3, 0
  br i1 %tobool.not.i, label %if.then.i, label %if.end

if.then.i:                                        ; preds = %if.then
  store i8 1, ptr %d_arithModelCacheSet, align 8
  %d_internal.i = getelementptr inbounds i8, ptr %this, i64 1232
  %4 = load ptr, ptr %d_internal.i, align 8
  %d_arithModelCache.i = getelementptr inbounds i8, ptr %this, i64 1672
  %d_arithModelCacheIllTyped.i = getelementptr inbounds i8, ptr %this, i64 1720
  tail call void @_ZN4cvc58internal6theory5arith6linear18TheoryArithPrivate18collectModelValuesERKSt3setINS0_12NodeTemplateILb1EEESt4lessIS7_ESaIS7_EERSt3mapIS7_S7_S9_SaISt4pairIKS7_S7_EEESK_(ptr noundef nonnull align 8 dereferenceable(9400) %4, ptr noundef nonnull align 8 dereferenceable(48) %termSet, ptr noundef nonnull align 8 dereferenceable(48) %d_arithModelCache.i, ptr noundef nonnull align 8 dereferenceable(48) %d_arithModelCacheIllTyped.i)
  br label %if.end

if.end:                                           ; preds = %if.then.i, %if.then, %entry
  ret void
}